target datalayout = "e-m:e-p270:32:32-p271:32:32-p272:64:64-i64:64-i128:128-f80:128-n8:16:32:64-S128"
target triple = "x86_64-pc-linux-gnu"

%struct.Latch = type { i32, i32, i8, i32 }

@MyProcPid = external global i32, align 4
@waiting = internal global i32 0, align 4

; Function Attrs: nounwind uwtable
define dso_local void @SetLatch(ptr noundef %0) #0 {
  %2 = alloca ptr, align 8
  %3 = alloca i32, align 4
  %4 = alloca i32, align 4
  store ptr %0, ptr %2, align 8
  call void @llvm.lifetime.start.p0(i64 4, ptr %3) #9
  call void asm sideeffect "lock; addl $$0,0(%rsp)", "~{memory},~{cc},~{dirflag},~{fpsr},~{flags}"() #9, !srcloc !9
  %5 = load ptr, ptr %2, align 8
  %6 = getelementptr inbounds nuw %struct.Latch, ptr %5, i32 0, i32 0
  %7 = load i32, ptr %6, align 4
  %8 = icmp ne i32 %7, 0
  br i1 %8, label %9, label %10

9:                                                ; preds = %1
  store i32 1, ptr %4, align 4
  br label %41

10:                                               ; preds = %1
  %11 = load ptr, ptr %2, align 8
  %12 = getelementptr inbounds nuw %struct.Latch, ptr %11, i32 0, i32 0
  store i32 1, ptr %12, align 4
  call void asm sideeffect "lock; addl $$0,0(%rsp)", "~{memory},~{cc},~{dirflag},~{fpsr},~{flags}"() #9, !srcloc !10
  %13 = load ptr, ptr %2, align 8
  %14 = getelementptr inbounds nuw %struct.Latch, ptr %13, i32 0, i32 1
  %15 = load i32, ptr %14, align 4
  %16 = icmp ne i32 %15, 0
  br i1 %16, label %18, label %17

17:                                               ; preds = %10
  store i32 1, ptr %4, align 4
  br label %41

18:                                               ; preds = %10
  %19 = load ptr, ptr %2, align 8
  %20 = getelementptr inbounds nuw %struct.Latch, ptr %19, i32 0, i32 3
  %21 = load i32, ptr %20, align 4
  store i32 %21, ptr %3, align 4
  %22 = load i32, ptr %3, align 4
  %23 = icmp eq i32 %22, 0
  br i1 %23, label %24, label %25

24:                                               ; preds = %18
  store i32 1, ptr %4, align 4
  br label %41

25:                                               ; preds = %18
  %26 = load i32, ptr %3, align 4
  %27 = load i32, ptr @MyProcPid, align 4
  %28 = icmp eq i32 %26, %27
  br i1 %28, label %29, label %36

29:                                               ; preds = %25
  %30 = load volatile i32, ptr @waiting, align 4
  %31 = icmp ne i32 %30, 0
  br i1 %31, label %32, label %35

32:                                               ; preds = %29
  %33 = load i32, ptr @MyProcPid, align 4
  %34 = call i32 @kill(i32 noundef %33, i32 noundef 23) #9
  br label %35

35:                                               ; preds = %32, %29
  br label %39

36:                                               ; preds = %25
  %37 = load i32, ptr %3, align 4
  %38 = call i32 @kill(i32 noundef %37, i32 noundef 23) #9
  br label %39

39:                                               ; preds = %36, %35
  br label %40

40:                                               ; preds = %39
  store i32 0, ptr %4, align 4
  br label %41

41:                                               ; preds = %40, %24, %17, %9
  call void @llvm.lifetime.end.p0(i64 4, ptr %3) #9
  %42 = load i32, ptr %4, align 4
  switch i32 %42, label %44 [
    i32 0, label %43
    i32 1, label %43
  ]

43:                                               ; preds = %41, %41
  ret void

44:                                               ; preds = %41
  unreachable
}