; Function Attrs: nounwind uwtable
define dso_local void @SetLatch(ptr noundef captures(none) %0) local_unnamed_addr #0 {
  tail call void asm sideeffect "lock; addl $$0,0(%rsp)", "~{memory},~{cc},~{dirflag},~{fpsr},~{flags}"() #14, !srcloc !9
  %2 = load i32, ptr %0, align 4
  %.not = icmp eq i32 %2, 0
  br i1 %.not, label %3, label %16

3:                                                ; preds = %1
  store i32 1, ptr %0, align 4
  tail call void asm sideeffect "lock; addl $$0,0(%rsp)", "~{memory},~{cc},~{dirflag},~{fpsr},~{flags}"() #14, !srcloc !10
  %4 = getelementptr inbounds nuw i8, ptr %0, i64 4
  %5 = load i32, ptr %4, align 4
  %.not6 = icmp eq i32 %5, 0
  br i1 %.not6, label %16, label %6

6:                                                ; preds = %3
  %7 = getelementptr inbounds nuw i8, ptr %0, i64 12
  %8 = load i32, ptr %7, align 4
  %9 = icmp eq i32 %8, 0
  br i1 %9, label %16, label %10

10:                                               ; preds = %6
  %11 = load i32, ptr @MyProcPid, align 4
  %12 = icmp eq i32 %8, %11
  br i1 %12, label %13, label %.sink.split

13:                                               ; preds = %10
  %14 = load volatile i32, ptr @waiting, align 4
  %.not7 = icmp eq i32 %14, 0
  br i1 %.not7, label %16, label %.sink.split

.sink.split:                                      ; preds = %10, %13
  %15 = tail call i32 @kill(i32 noundef %8, i32 noundef 23) #14
  br label %16

16:                                               ; preds = %.sink.split, %13, %6, %3, %1
  ret void
}